; Function Attrs: mustprogress uwtable
define dso_local void @_ZN10Subprocess11OnPipeReadyEv(ptr noundef nonnull align 8 dereferenceable(41) %0) local_unnamed_addr #5 align 2 personality ptr @__gxx_personality_v0 {
  %2 = alloca [4096 x i8], align 16
  call void @llvm.lifetime.start.p0(i64 4096, ptr nonnull %2) #22
  %3 = getelementptr inbounds nuw i8, ptr %0, i64 32
  %4 = load i32, ptr %3, align 8, !tbaa !14
  %5 = call i64 @read(i32 noundef %4, ptr noundef nonnull %2, i64 noundef 4096)
  %6 = icmp sgt i64 %5, 0
  br i1 %6, label %7, label %14

7:                                                ; preds = %1
  %8 = getelementptr inbounds nuw i8, ptr %0, i64 8
  %9 = load i64, ptr %8, align 8, !tbaa !10
  %10 = sub i64 4611686018427387903, %9
  %11 = icmp ult i64 %10, %5
  br i1 %11, label %12, label %_ZNSt7__cxx1112basic_stringIcSt11char_traitsIcESaIcEE6appendEPKcm.exit

12:                                               ; preds = %7
  tail call void @_ZSt20__throw_length_errorPKc(ptr noundef nonnull @.str.20) #24
  unreachable

_ZNSt7__cxx1112basic_stringIcSt11char_traitsIcESaIcEE6appendEPKcm.exit: ; preds = %7
  %13 = call noundef nonnull align 8 dereferenceable(32) ptr @_ZNSt7__cxx1112basic_stringIcSt11char_traitsIcESaIcEE9_M_appendEPKcm(ptr noundef nonnull align 8 dereferenceable(32) %0, ptr noundef nonnull %2, i64 noundef %5)
  br label %23

14:                                               ; preds = %1
  %15 = icmp slt i64 %5, 0
  br i1 %15, label %16, label %20

16:                                               ; preds = %14
  %17 = tail call ptr @__errno_location() #23
  %18 = load i32, ptr %17, align 4, !tbaa !20
  %19 = tail call ptr @strerror(i32 noundef %18) #22
  tail call void (ptr, ...) @_Z5FatalPKcz(ptr noundef nonnull @.str.14, ptr noundef %19) #24
  unreachable

20:                                               ; preds = %14
  %21 = load i32, ptr %3, align 8, !tbaa !14
  %22 = tail call i32 @close(i32 noundef %21)
  store i32 -1, ptr %3, align 8, !tbaa !14
  br label %23

23:                                               ; preds = %20, %_ZNSt7__cxx1112basic_stringIcSt11char_traitsIcESaIcEE6appendEPKcm.exit
  call void @llvm.lifetime.end.p0(i64 4096, ptr nonnull %2) #22
  ret void
}